target datalayout = "e-m:e-p270:32:32-p271:32:32-p272:64:64-i64:64-i128:128-f80:128-n8:16:32:64-S128"
target triple = "x86_64-pc-linux-gnu"

%struct.lua_TValue = type { %union.Value, [1 x i32], i32 }
%union.Value = type { ptr }
%struct.lua_State = type { i8, i8, i8, i8, i8, i8, i8, ptr, ptr, ptr, ptr, ptr, ptr, ptr, ptr, i32, i32, i16, i16, i32, ptr, ptr, ptr, ptr, ptr }
%struct.CallInfo = type { ptr, ptr, ptr, ptr, i32, i32 }
%struct.Closure = type { i8, i8, i8, i8, i8, i8, i8, ptr, ptr, %union.anon.1 }
%union.anon.1 = type { %struct.anon }
%struct.anon = type { ptr, ptr, ptr, [1 x %struct.lua_TValue] }

; Function Attrs: mustprogress uwtable
define dso_local noundef ptr @_ZN4Luau7CodeGen18executePREPVARARGSEP9lua_StatePKjP10lua_TValueS6_(ptr noundef %0, ptr noundef %1, ptr noundef %2, ptr noundef %3) #2 {
  %5 = alloca ptr, align 8
  %6 = alloca ptr, align 8
  %7 = alloca ptr, align 8
  %8 = alloca ptr, align 8
  %9 = alloca ptr, align 8
  %10 = alloca i32, align 4
  %11 = alloca i32, align 4
  %12 = alloca ptr, align 8
  %13 = alloca i32, align 4
  %14 = alloca ptr, align 8
  %15 = alloca ptr, align 8
  store ptr %0, ptr %5, align 8
  store ptr %1, ptr %6, align 8
  store ptr %2, ptr %7, align 8
  store ptr %3, ptr %8, align 8
  %16 = load ptr, ptr %5, align 8
  %17 = getelementptr inbounds %struct.lua_State, ptr %16, i32 0, i32 10
  %18 = load ptr, ptr %17, align 8
  %19 = getelementptr inbounds %struct.CallInfo, ptr %18, i32 0, i32 1
  %20 = load ptr, ptr %19, align 8
  %21 = getelementptr inbounds %struct.lua_TValue, ptr %20, i32 0, i32 0
  %22 = load ptr, ptr %21, align 8
  store ptr %22, ptr %9, align 8
  %23 = load ptr, ptr %6, align 8
  %24 = getelementptr inbounds i32, ptr %23, i32 1
  store ptr %24, ptr %6, align 8
  %25 = load i32, ptr %23, align 4
  store i32 %25, ptr %10, align 4
  %26 = load i32, ptr %10, align 4
  %27 = lshr i32 %26, 8
  %28 = and i32 %27, 255
  store i32 %28, ptr %11, align 4
  %29 = load ptr, ptr %6, align 8
  %30 = load ptr, ptr %5, align 8
  %31 = getelementptr inbounds %struct.lua_State, ptr %30, i32 0, i32 10
  %32 = load ptr, ptr %31, align 8
  %33 = getelementptr inbounds %struct.CallInfo, ptr %32, i32 0, i32 3
  store ptr %29, ptr %33, align 8
  %34 = load ptr, ptr %5, align 8
  %35 = getelementptr inbounds %struct.lua_State, ptr %34, i32 0, i32 11
  %36 = load ptr, ptr %35, align 8
  %37 = load ptr, ptr %5, align 8
  %38 = getelementptr inbounds %struct.lua_State, ptr %37, i32 0, i32 7
  %39 = load ptr, ptr %38, align 8
  %40 = ptrtoint ptr %36 to i64
  %41 = ptrtoint ptr %39 to i64
  %42 = sub i64 %40, %41
  %43 = load ptr, ptr %9, align 8
  %44 = getelementptr inbounds %struct.Closure, ptr %43, i32 0, i32 5
  %45 = load i8, ptr %44, align 1
  %46 = zext i8 %45 to i32
  %47 = load i32, ptr %11, align 4
  %48 = add nsw i32 %46, %47
  %49 = mul nsw i32 %48, 16
  %50 = sext i32 %49 to i64
  %51 = icmp sle i64 %42, %50
  br i1 %51, label %52, label %60

52:                                               ; preds = %4
  %53 = load ptr, ptr %5, align 8
  %54 = load ptr, ptr %9, align 8
  %55 = getelementptr inbounds %struct.Closure, ptr %54, i32 0, i32 5
  %56 = load i8, ptr %55, align 1
  %57 = zext i8 %56 to i32
  %58 = load i32, ptr %11, align 4
  %59 = add nsw i32 %57, %58
  call void @_Z14luaD_growstackP9lua_Statei(ptr noundef %53, i32 noundef %59)
  br label %61

60:                                               ; preds = %4
  br label %61

61:                                               ; preds = %60, %52
  %62 = load ptr, ptr %5, align 8
  %63 = getelementptr inbounds %struct.lua_State, ptr %62, i32 0, i32 8
  %64 = load ptr, ptr %63, align 8
  store ptr %64, ptr %7, align 8
  %65 = load ptr, ptr %7, align 8
  store ptr %65, ptr %12, align 8
  %66 = load ptr, ptr %5, align 8
  %67 = getelementptr inbounds %struct.lua_State, ptr %66, i32 0, i32 7
  %68 = load ptr, ptr %67, align 8
  store ptr %68, ptr %7, align 8
  store i32 0, ptr %13, align 4
  br label %69

69:                                               ; preds = %89, %61
  %70 = load i32, ptr %13, align 4
  %71 = load i32, ptr %11, align 4
  %72 = icmp slt i32 %70, %71
  br i1 %72, label %73, label %92

73:                                               ; preds = %69
  %74 = load ptr, ptr %12, align 8
  %75 = load i32, ptr %13, align 4
  %76 = sext i32 %75 to i64
  %77 = getelementptr inbounds %struct.lua_TValue, ptr %74, i64 %76
  store ptr %77, ptr %14, align 8
  %78 = load ptr, ptr %7, align 8
  %79 = load i32, ptr %13, align 4
  %80 = sext i32 %79 to i64
  %81 = getelementptr inbounds %struct.lua_TValue, ptr %78, i64 %80
  store ptr %81, ptr %15, align 8
  %82 = load ptr, ptr %14, align 8
  %83 = load ptr, ptr %15, align 8
  call void @llvm.memcpy.p0.p0.i64(ptr align 8 %83, ptr align 8 %82, i64 16, i1 false)
  %84 = load ptr, ptr %12, align 8
  %85 = load i32, ptr %13, align 4
  %86 = sext i32 %85 to i64
  %87 = getelementptr inbounds %struct.lua_TValue, ptr %84, i64 %86
  %88 = getelementptr inbounds %struct.lua_TValue, ptr %87, i32 0, i32 2
  store i32 0, ptr %88, align 4
  br label %89

89:                                               ; preds = %73
  %90 = load i32, ptr %13, align 4
  %91 = add nsw i32 %90, 1
  store i32 %91, ptr %13, align 4
  br label %69, !llvm.loop !19

92:                                               ; preds = %69
  %93 = load ptr, ptr %7, align 8
  %94 = load ptr, ptr %5, align 8
  %95 = getelementptr inbounds %struct.lua_State, ptr %94, i32 0, i32 10
  %96 = load ptr, ptr %95, align 8
  %97 = getelementptr inbounds %struct.CallInfo, ptr %96, i32 0, i32 0
  store ptr %93, ptr %97, align 8
  %98 = load ptr, ptr %7, align 8
  %99 = load ptr, ptr %9, align 8
  %100 = getelementptr inbounds %struct.Closure, ptr %99, i32 0, i32 5
  %101 = load i8, ptr %100, align 1
  %102 = zext i8 %101 to i32
  %103 = sext i32 %102 to i64
  %104 = getelementptr inbounds %struct.lua_TValue, ptr %98, i64 %103
  %105 = load ptr, ptr %5, align 8
  %106 = getelementptr inbounds %struct.lua_State, ptr %105, i32 0, i32 10
  %107 = load ptr, ptr %106, align 8
  %108 = getelementptr inbounds %struct.CallInfo, ptr %107, i32 0, i32 2
  store ptr %104, ptr %108, align 8
  %109 = load ptr, ptr %7, align 8
  %110 = load ptr, ptr %5, align 8
  %111 = getelementptr inbounds %struct.lua_State, ptr %110, i32 0, i32 8
  store ptr %109, ptr %111, align 8
  %112 = load ptr, ptr %5, align 8
  %113 = getelementptr inbounds %struct.lua_State, ptr %112, i32 0, i32 10
  %114 = load ptr, ptr %113, align 8
  %115 = getelementptr inbounds %struct.CallInfo, ptr %114, i32 0, i32 2
  %116 = load ptr, ptr %115, align 8
  %117 = load ptr, ptr %5, align 8
  %118 = getelementptr inbounds %struct.lua_State, ptr %117, i32 0, i32 7
  store ptr %116, ptr %118, align 8
  %119 = load ptr, ptr %6, align 8
  ret ptr %119
}