; Function Attrs: mustprogress uwtable
define dso_local noundef nonnull ptr @_ZN4Luau7CodeGen18executePREPVARARGSEP9lua_StatePKjP10lua_TValueS6_(ptr noundef %0, ptr noundef %1, ptr nocapture noundef readnone %2, ptr nocapture noundef readnone %3) local_unnamed_addr #2 {
  %5 = getelementptr inbounds i8, ptr %0, i64 32
  %6 = load ptr, ptr %5, align 8
  %7 = getelementptr inbounds i8, ptr %6, i64 8
  %8 = load ptr, ptr %7, align 8
  %9 = load ptr, ptr %8, align 8
  %10 = getelementptr inbounds i8, ptr %1, i64 4
  %11 = load i32, ptr %1, align 4
  %12 = lshr i32 %11, 8
  %13 = and i32 %12, 255
  %14 = getelementptr inbounds i8, ptr %6, i64 24
  store ptr %10, ptr %14, align 8
  %15 = getelementptr inbounds i8, ptr %0, i64 40
  %16 = load ptr, ptr %15, align 8
  %17 = getelementptr inbounds i8, ptr %0, i64 8
  %18 = load ptr, ptr %17, align 8
  %19 = ptrtoint ptr %16 to i64
  %20 = ptrtoint ptr %18 to i64
  %21 = sub i64 %19, %20
  %22 = getelementptr inbounds i8, ptr %9, i64 5
  %23 = load i8, ptr %22, align 1
  %24 = zext i8 %23 to i32
  %25 = add nuw nsw i32 %13, %24
  %26 = shl nuw nsw i32 %25, 4
  %27 = zext nneg i32 %26 to i64
  %.not = icmp sgt i64 %21, %27
  br i1 %.not, label %29, label %28

28:                                               ; preds = %4
  tail call void @_Z14luaD_growstackP9lua_Statei(ptr noundef nonnull %0, i32 noundef %25)
  %.pre = load ptr, ptr %17, align 8
  br label %29

29:                                               ; preds = %4, %28
  %30 = phi ptr [ %18, %4 ], [ %.pre, %28 ]
  %31 = getelementptr inbounds i8, ptr %0, i64 16
  %32 = load ptr, ptr %31, align 8
  %.not36 = icmp eq i32 %13, 0
  br i1 %.not36, label %._crit_edge, label %.lr.ph.preheader

.lr.ph.preheader:                                 ; preds = %29
  %wide.trip.count = zext nneg i32 %13 to i64
  br label %.lr.ph

.lr.ph:                                           ; preds = %.lr.ph.preheader, %.lr.ph
  %indvars.iv = phi i64 [ 0, %.lr.ph.preheader ], [ %indvars.iv.next, %.lr.ph ]
  %33 = getelementptr inbounds %struct.lua_TValue, ptr %32, i64 %indvars.iv
  %34 = getelementptr inbounds %struct.lua_TValue, ptr %30, i64 %indvars.iv
  tail call void @llvm.memcpy.p0.p0.i64(ptr noundef nonnull align 8 dereferenceable(16) %34, ptr noundef nonnull align 8 dereferenceable(16) %33, i64 16, i1 false)
  %35 = getelementptr inbounds i8, ptr %33, i64 12
  store i32 0, ptr %35, align 4
  %indvars.iv.next = add nuw nsw i64 %indvars.iv, 1
  %exitcond.not = icmp eq i64 %indvars.iv.next, %wide.trip.count
  br i1 %exitcond.not, label %._crit_edge, label %.lr.ph, !llvm.loop !19

._crit_edge:                                      ; preds = %.lr.ph, %29
  %36 = load ptr, ptr %5, align 8
  store ptr %30, ptr %36, align 8
  %37 = load i8, ptr %22, align 1
  %38 = zext i8 %37 to i64
  %39 = getelementptr inbounds %struct.lua_TValue, ptr %30, i64 %38
  %40 = load ptr, ptr %5, align 8
  %41 = getelementptr inbounds i8, ptr %40, i64 16
  store ptr %39, ptr %41, align 8
  store ptr %30, ptr %31, align 8
  %42 = load ptr, ptr %5, align 8
  %43 = getelementptr inbounds i8, ptr %42, i64 16
  %44 = load ptr, ptr %43, align 8
  store ptr %44, ptr %17, align 8
  ret ptr %10
}